target datalayout = "e-m:e-p270:32:32-p271:32:32-p272:64:64-i64:64-i128:128-f80:128-n8:16:32:64-S128"
target triple = "x86_64-pc-linux-gnu"

%"class.cv::Rect_" = type { i32, i32, i32, i32 }
%"class.cv::Size_" = type { i32, i32 }
%"class.cv::FeatureEvaluator" = type { ptr, i32, %"class.cv::Size_", %"class.cv::Size_", %"class.cv::Size_", %"class.cv::Size_", i32, %"class.cv::Mat", %"class.cv::Mat", %"class.cv::UMat", %"class.cv::UMat", %"class.cv::UMat", %"class.cv::UMat", %"struct.cv::Ptr" }
%"class.cv::Mat" = type { i32, i32, i32, i32, ptr, ptr, ptr, ptr, ptr, ptr, %"struct.cv::MatSize", %"struct.cv::MatStep" }
%"struct.cv::MatSize" = type { ptr }
%"struct.cv::MatStep" = type { ptr, [2 x i64] }
%"class.cv::UMat" = type { i32, i32, i32, i32, ptr, i32, ptr, i64, %"struct.cv::MatSize", %"struct.cv::MatStep" }
%"struct.cv::Ptr" = type { %"class.std::shared_ptr" }
%"class.std::shared_ptr" = type { %"class.std::__shared_ptr" }
%"class.std::__shared_ptr" = type { ptr, %"class.std::__shared_count" }
%"class.std::__shared_count" = type { ptr }
%"class.cv::HaarEvaluator" = type <{ %"class.cv::FeatureEvaluator", %"struct.cv::Ptr.29", %"struct.cv::Ptr.33", %"struct.cv::Ptr.33", i8, [3 x i8], i32, i32, %"class.cv::Vec", %"class.cv::Rect_", [4 x i8], ptr, ptr, float, [4 x i8] }>
%"struct.cv::Ptr.29" = type { %"class.std::shared_ptr.30" }
%"class.std::shared_ptr.30" = type { %"class.std::__shared_ptr.31" }
%"class.std::__shared_ptr.31" = type { ptr, %"class.std::__shared_count" }
%"struct.cv::Ptr.33" = type { %"class.std::shared_ptr.34" }
%"class.std::shared_ptr.34" = type { %"class.std::__shared_ptr.35" }
%"class.std::__shared_ptr.35" = type { ptr, %"class.std::__shared_count" }
%"class.cv::Vec" = type { %"class.cv::Matx" }
%"class.cv::Matx" = type { [4 x i32] }
%"class.std::_Sp_counted_base" = type { ptr, i32, i32 }

@__libc_single_threaded = external global i8, align 1

; Function Attrs: alwaysinline mustprogress nounwind uwtable
define linkonce_odr noundef i32 @_ZN9__gnu_cxx18__exchange_and_addEPVii(ptr noundef %0, i32 noundef %1) #20 comdat {
  %3 = alloca ptr, align 8
  %4 = alloca i32, align 4
  %5 = alloca i32, align 4
  %6 = alloca i32, align 4
  store ptr %0, ptr %3, align 8, !tbaa !45
  store i32 %1, ptr %4, align 4, !tbaa !8
  %7 = load ptr, ptr %3, align 8, !tbaa !45
  %8 = load i32, ptr %4, align 4, !tbaa !8
  store i32 %8, ptr %5, align 4, !tbaa !8
  %9 = load i32, ptr %5, align 4
  %10 = atomicrmw volatile add ptr %7, i32 %9 acq_rel, align 4
  store i32 %10, ptr %6, align 4
  %11 = load i32, ptr %6, align 4, !tbaa !8
  ret i32 %11
}

; Function Attrs: alwaysinline mustprogress nounwind uwtable
define linkonce_odr noundef i32 @_ZN9__gnu_cxx25__exchange_and_add_singleEPii(ptr noundef %0, i32 noundef %1) #20 comdat {
  %3 = alloca ptr, align 8
  %4 = alloca i32, align 4
  %5 = alloca i32, align 4
  store ptr %0, ptr %3, align 8, !tbaa !45
  store i32 %1, ptr %4, align 4, !tbaa !8
  call void @llvm.lifetime.start.p0(i64 4, ptr %5) #3
  %6 = load ptr, ptr %3, align 8, !tbaa !45
  %7 = load i32, ptr %6, align 4, !tbaa !8
  store i32 %7, ptr %5, align 4, !tbaa !8
  %8 = load i32, ptr %4, align 4, !tbaa !8
  %9 = load ptr, ptr %3, align 8, !tbaa !45
  %10 = load i32, ptr %9, align 4, !tbaa !8
  %11 = add nsw i32 %10, %8
  store i32 %11, ptr %9, align 4, !tbaa !8
  %12 = load i32, ptr %5, align 4, !tbaa !8
  call void @llvm.lifetime.end.p0(i64 4, ptr %5) #3
  ret i32 %12
}

; Function Attrs: alwaysinline mustprogress nounwind uwtable
define linkonce_odr noundef zeroext i1 @_ZN9__gnu_cxx20__is_single_threadedEv() #20 comdat {
  %1 = load i8, ptr @__libc_single_threaded, align 1, !tbaa !163
  %2 = icmp ne i8 %1, 0
  ret i1 %2
}

; Function Attrs: noinline noreturn nounwind uwtable
define linkonce_odr hidden void @__clang_call_terminate(ptr noundef %0) #16 comdat {
  %2 = call ptr @__cxa_begin_catch(ptr %0) #3
  call void @_ZSt9terminatev() #24
  unreachable
}

; Function Attrs: alwaysinline mustprogress uwtable
define linkonce_odr noundef i32 @_ZN9__gnu_cxx27__exchange_and_add_dispatchEPii(ptr noundef %0, i32 noundef %1) #18 comdat {
  %3 = alloca i32, align 4
  %4 = alloca ptr, align 8
  %5 = alloca i32, align 4
  store ptr %0, ptr %4, align 8, !tbaa !45
  store i32 %1, ptr %5, align 4, !tbaa !8
  %6 = call noundef zeroext i1 @_ZN9__gnu_cxx20__is_single_threadedEv() #3
  br i1 %6, label %7, label %11

7:                                                ; preds = %2
  %8 = load ptr, ptr %4, align 8, !tbaa !45
  %9 = load i32, ptr %5, align 4, !tbaa !8
  %10 = call noundef i32 @_ZN9__gnu_cxx25__exchange_and_add_singleEPii(ptr noundef %8, i32 noundef %9)
  store i32 %10, ptr %3, align 4
  br label %15

11:                                               ; preds = %2
  %12 = load ptr, ptr %4, align 8, !tbaa !45
  %13 = load i32, ptr %5, align 4, !tbaa !8
  %14 = call noundef i32 @_ZN9__gnu_cxx18__exchange_and_addEPVii(ptr noundef %12, i32 noundef %13)
  store i32 %14, ptr %3, align 4
  br label %15

15:                                               ; preds = %11, %7
  %16 = load i32, ptr %3, align 4
  ret i32 %16
}

; Function Attrs: inlinehint mustprogress nounwind uwtable
define linkonce_odr hidden void @_ZNSt16_Sp_counted_baseILN9__gnu_cxx12_Lock_policyE2EE10_M_releaseEv(ptr noundef nonnull align 8 dereferenceable(16) %0) #9 comdat align 2 personality ptr @__gxx_personality_v0 {
  %2 = alloca ptr, align 8
  %3 = alloca i8, align 1
  %4 = alloca i8, align 1
  %5 = alloca i8, align 1
  %6 = alloca i32, align 4
  %7 = alloca i32, align 4
  %8 = alloca i64, align 8
  %9 = alloca ptr, align 8
  %10 = alloca i64, align 8
  %11 = alloca i32, align 4
  store ptr %0, ptr %2, align 8, !tbaa !547
  %12 = load ptr, ptr %2, align 8
  call void @llvm.lifetime.start.p0(i64 1, ptr %3) #3
  store i8 1, ptr %3, align 1, !tbaa !26
  call void @llvm.lifetime.start.p0(i64 1, ptr %4) #3
  store i8 1, ptr %4, align 1, !tbaa !26
  call void @llvm.lifetime.start.p0(i64 1, ptr %5) #3
  store i8 1, ptr %5, align 1, !tbaa !26
  call void @llvm.lifetime.start.p0(i64 4, ptr %6) #3
  store i32 32, ptr %6, align 4, !tbaa !8
  call void @llvm.lifetime.start.p0(i64 4, ptr %7) #3
  store i32 32, ptr %7, align 4, !tbaa !8
  call void @llvm.lifetime.start.p0(i64 8, ptr %8) #3
  store i64 4294967297, ptr %8, align 8, !tbaa !548
  call void @llvm.lifetime.start.p0(i64 8, ptr %9) #3
  %13 = getelementptr inbounds nuw %"class.std::_Sp_counted_base", ptr %12, i32 0, i32 1
  store ptr %13, ptr %9, align 8, !tbaa !550
  %14 = load ptr, ptr %9, align 8, !tbaa !550
  %15 = load atomic i64, ptr %14 acquire, align 8
  store i64 %15, ptr %10, align 8
  %16 = load i64, ptr %10, align 8, !tbaa !548
  %17 = icmp eq i64 %16, 4294967297
  br i1 %17, label %18, label %27

18:                                               ; preds = %1
  %19 = getelementptr inbounds nuw %"class.std::_Sp_counted_base", ptr %12, i32 0, i32 1
  store i32 0, ptr %19, align 8, !tbaa !552
  %20 = getelementptr inbounds nuw %"class.std::_Sp_counted_base", ptr %12, i32 0, i32 2
  store i32 0, ptr %20, align 4, !tbaa !554
  %21 = load ptr, ptr %12, align 8, !tbaa !98
  %22 = getelementptr inbounds ptr, ptr %21, i64 2
  %23 = load ptr, ptr %22, align 8
  call void %23(ptr noundef nonnull align 8 dereferenceable(16) %12) #3
  %24 = load ptr, ptr %12, align 8, !tbaa !98
  %25 = getelementptr inbounds ptr, ptr %24, i64 3
  %26 = load ptr, ptr %25, align 8
  call void %26(ptr noundef nonnull align 8 dereferenceable(16) %12) #3
  store i32 1, ptr %11, align 4
  br label %35

27:                                               ; preds = %1
  %28 = getelementptr inbounds nuw %"class.std::_Sp_counted_base", ptr %12, i32 0, i32 1
  %29 = invoke noundef i32 @_ZN9__gnu_cxx27__exchange_and_add_dispatchEPii(ptr noundef %28, i32 noundef -1)
          to label %30 unwind label %41

30:                                               ; preds = %27
  %31 = icmp eq i32 %29, 1
  %32 = call i1 @llvm.expect.i1(i1 %31, i1 false)
  br i1 %32, label %33, label %34

33:                                               ; preds = %30
  call void @_ZNSt16_Sp_counted_baseILN9__gnu_cxx12_Lock_policyE2EE24_M_release_last_use_coldEv(ptr noundef nonnull align 8 dereferenceable(16) %12) #3
  store i32 1, ptr %11, align 4
  br label %35

34:                                               ; preds = %30
  store i32 0, ptr %11, align 4
  br label %35

35:                                               ; preds = %34, %33, %18
  call void @llvm.lifetime.end.p0(i64 8, ptr %9) #3
  call void @llvm.lifetime.end.p0(i64 8, ptr %8) #3
  call void @llvm.lifetime.end.p0(i64 4, ptr %7) #3
  call void @llvm.lifetime.end.p0(i64 4, ptr %6) #3
  %36 = load i32, ptr %11, align 4
  switch i32 %36, label %38 [
    i32 0, label %37
  ]

37:                                               ; preds = %35
  store i32 0, ptr %11, align 4
  br label %38

38:                                               ; preds = %37, %35
  call void @llvm.lifetime.end.p0(i64 1, ptr %5) #3
  call void @llvm.lifetime.end.p0(i64 1, ptr %4) #3
  call void @llvm.lifetime.end.p0(i64 1, ptr %3) #3
  %39 = load i32, ptr %11, align 4
  switch i32 %39, label %44 [
    i32 0, label %40
    i32 1, label %40
  ]

40:                                               ; preds = %38, %38
  ret void

41:                                               ; preds = %27
  %42 = landingpad { ptr, i32 }
          catch ptr null
  %43 = extractvalue { ptr, i32 } %42, 0
  call void @__clang_call_terminate(ptr %43) #24
  unreachable

44:                                               ; preds = %38
  unreachable
}

; Function Attrs: mustprogress nounwind uwtable
define linkonce_odr hidden void @_ZNSt14__shared_countILN9__gnu_cxx12_Lock_policyE2EED2Ev(ptr noundef nonnull align 8 dereferenceable(8) %0) unnamed_addr #6 comdat align 2 {
  %2 = alloca ptr, align 8
  store ptr %0, ptr %2, align 8, !tbaa !544
  %3 = load ptr, ptr %2, align 8
  %4 = getelementptr inbounds nuw %"class.std::__shared_count", ptr %3, i32 0, i32 0
  %5 = load ptr, ptr %4, align 8, !tbaa !546
  %6 = icmp ne ptr %5, null
  br i1 %6, label %7, label %10

7:                                                ; preds = %1
  %8 = getelementptr inbounds nuw %"class.std::__shared_count", ptr %3, i32 0, i32 0
  %9 = load ptr, ptr %8, align 8, !tbaa !546
  call void @_ZNSt16_Sp_counted_baseILN9__gnu_cxx12_Lock_policyE2EE10_M_releaseEv(ptr noundef nonnull align 8 dereferenceable(16) %9) #3
  br label %10

10:                                               ; preds = %7, %1
  ret void
}

; Function Attrs: mustprogress nounwind uwtable
define linkonce_odr hidden void @_ZNSt12__shared_ptrISt6vectorIN2cv13HaarEvaluator7FeatureESaIS3_EELN9__gnu_cxx12_Lock_policyE2EED2Ev(ptr noundef nonnull align 8 dereferenceable(16) %0) unnamed_addr #6 comdat align 2 {
  %2 = alloca ptr, align 8
  store ptr %0, ptr %2, align 8, !tbaa !741
  %3 = load ptr, ptr %2, align 8
  %4 = getelementptr inbounds nuw %"class.std::__shared_ptr.31", ptr %3, i32 0, i32 1
  call void @_ZNSt14__shared_countILN9__gnu_cxx12_Lock_policyE2EED2Ev(ptr noundef nonnull align 8 dereferenceable(8) %4) #3
  ret void
}

; Function Attrs: mustprogress nounwind uwtable
define linkonce_odr hidden void @_ZNSt12__shared_ptrISt6vectorIN2cv13HaarEvaluator10OptFeatureESaIS3_EELN9__gnu_cxx12_Lock_policyE2EED2Ev(ptr noundef nonnull align 8 dereferenceable(16) %0) unnamed_addr #6 comdat align 2 {
  %2 = alloca ptr, align 8
  store ptr %0, ptr %2, align 8, !tbaa !746
  %3 = load ptr, ptr %2, align 8
  %4 = getelementptr inbounds nuw %"class.std::__shared_ptr.35", ptr %3, i32 0, i32 1
  call void @_ZNSt14__shared_countILN9__gnu_cxx12_Lock_policyE2EED2Ev(ptr noundef nonnull align 8 dereferenceable(8) %4) #3
  ret void
}

; Function Attrs: mustprogress nounwind uwtable
define hidden void @_ZN2cv13HaarEvaluatorD2Ev(ptr noundef nonnull align 8 dereferenceable(696) %0) unnamed_addr #6 align 2 {
  %2 = alloca ptr, align 8
  store ptr %0, ptr %2, align 8, !tbaa !193
  %3 = load ptr, ptr %2, align 8
  %4 = getelementptr inbounds nuw %"class.cv::HaarEvaluator", ptr %3, i32 0, i32 3
  call void @_ZNSt12__shared_ptrISt6vectorIN2cv13HaarEvaluator10OptFeatureESaIS3_EELN9__gnu_cxx12_Lock_policyE2EED2Ev(ptr noundef nonnull align 8 dereferenceable(16) %4) #3
  %5 = getelementptr inbounds nuw %"class.cv::HaarEvaluator", ptr %3, i32 0, i32 2
  call void @_ZNSt12__shared_ptrISt6vectorIN2cv13HaarEvaluator10OptFeatureESaIS3_EELN9__gnu_cxx12_Lock_policyE2EED2Ev(ptr noundef nonnull align 8 dereferenceable(16) %5) #3
  %6 = getelementptr inbounds nuw %"class.cv::HaarEvaluator", ptr %3, i32 0, i32 1
  call void @_ZNSt12__shared_ptrISt6vectorIN2cv13HaarEvaluator7FeatureESaIS3_EELN9__gnu_cxx12_Lock_policyE2EED2Ev(ptr noundef nonnull align 8 dereferenceable(16) %6) #3
  call void @_ZN2cv16FeatureEvaluatorD2Ev(ptr noundef nonnull align 8 dereferenceable(576) %3) #3
  ret void
}